target datalayout = "e-m:e-p270:32:32-p271:32:32-p272:64:64-i64:64-i128:128-f80:128-n8:16:32:64-S128"
target triple = "x86_64-pc-linux-gnu"

@H5FD_init_g = external global i8, align 1
@H5_libterm_g = external global i8, align 1
@.str = private unnamed_addr constant [110 x i8] c"generated/home/dtcxzyw/WorkSpace/Projects/compilers/llvm-opt-benchmark/bench/hdf5/hdf5/src/H5FDonion_header.c\00", align 1
@H5E_BADVALUE_g = external global i64, align 8
@H5E_VFL_g = external global i64, align 8
@H5E_CANTALLOC_g = external global i64, align 8
@__func__.H5FD__onion_write_header = private unnamed_addr constant [25 x i8] c"H5FD__onion_write_header\00", align 1
@.str.7 = private unnamed_addr constant [49 x i8] c"can't allocate buffer for updated history header\00", align 1
@.str.8 = private unnamed_addr constant [40 x i8] c"problem encoding updated history header\00", align 1
@H5E_WRITEERROR_g = external global i64, align 8
@.str.9 = private unnamed_addr constant [35 x i8] c"can't write updated history header\00", align 1

; Function Attrs: nounwind uwtable
define i32 @H5FD__onion_write_header(ptr noundef %0, ptr noundef %1) #0 {
  %3 = alloca ptr, align 8
  %4 = alloca ptr, align 8
  %5 = alloca i32, align 4
  %6 = alloca i64, align 8
  %7 = alloca ptr, align 8
  %8 = alloca i32, align 4
  %9 = alloca i8, align 1
  store ptr %0, ptr %3, align 8, !tbaa !3
  store ptr %1, ptr %4, align 8, !tbaa !8
  call void @llvm.lifetime.start.p0(i64 4, ptr %5) #7
  store i32 0, ptr %5, align 4, !tbaa !14
  call void @llvm.lifetime.start.p0(i64 8, ptr %6) #7
  store i64 0, ptr %6, align 8, !tbaa !10
  call void @llvm.lifetime.start.p0(i64 8, ptr %7) #7
  store ptr null, ptr %7, align 8, !tbaa !12
  call void @llvm.lifetime.start.p0(i64 4, ptr %8) #7
  store i32 0, ptr %8, align 4, !tbaa !14
  call void @llvm.lifetime.start.p0(i64 1, ptr %9) #7
  store i8 0, ptr %9, align 1, !tbaa !16
  %10 = load i8, ptr @H5FD_init_g, align 1, !tbaa !16, !range !18, !noundef !19
  %11 = trunc i8 %10 to i1
  br i1 %11, label %16, label %12

12:                                               ; preds = %2
  %13 = load i8, ptr @H5_libterm_g, align 1, !tbaa !16, !range !18, !noundef !19
  %14 = trunc i8 %13 to i1
  %15 = xor i1 %14, true
  br label %16

16:                                               ; preds = %12, %2
  %17 = phi i1 [ true, %2 ], [ %15, %12 ]
  %18 = xor i1 %17, true
  %19 = xor i1 %18, true
  %20 = zext i1 %19 to i32
  %21 = sext i32 %20 to i64
  %22 = call i64 @llvm.expect.i64(i64 %21, i64 1)
  %23 = icmp ne i64 %22, 0
  br i1 %23, label %24, label %99

24:                                               ; preds = %16
  %25 = call noalias ptr @malloc(i64 noundef 40) #8
  store ptr %25, ptr %7, align 8, !tbaa !12
  %26 = icmp eq ptr null, %25
  br i1 %26, label %27, label %46

27:                                               ; preds = %24
  br label %28

28:                                               ; preds = %27
  br label %29

29:                                               ; preds = %28
  br label %30

30:                                               ; preds = %29
  %31 = load i64, ptr @H5E_VFL_g, align 8, !tbaa !10
  %32 = load i64, ptr @H5E_CANTALLOC_g, align 8, !tbaa !10
  %33 = call i32 (ptr, ptr, i32, i64, i64, ptr, ...) @H5E_printf_stack(ptr noundef @.str, ptr noundef @__func__.H5FD__onion_write_header, i32 noundef 92, i64 noundef %31, i64 noundef %32, ptr noundef @.str.7)
  br label %34

34:                                               ; preds = %30
  br label %35

35:                                               ; preds = %34
  store i8 1, ptr %9, align 1, !tbaa !16
  %36 = load i8, ptr %9, align 1, !tbaa !16, !range !18, !noundef !19
  %37 = trunc i8 %36 to i1
  %38 = zext i1 %37 to i8
  store i8 %38, ptr %9, align 1, !tbaa !16
  br label %39

39:                                               ; preds = %35
  br label %40

40:                                               ; preds = %39
  br label %41

41:                                               ; preds = %40
  store i32 -1, ptr %8, align 4, !tbaa !14
  br label %96

42:                                               ; No predecessors!
  br label %43

43:                                               ; preds = %42
  br label %44

44:                                               ; preds = %43
  br label %45

45:                                               ; preds = %44
  br label %46

46:                                               ; preds = %45, %24
  %47 = load ptr, ptr %3, align 8, !tbaa !3
  %48 = load ptr, ptr %7, align 8, !tbaa !12
  %49 = call i64 @H5FD__onion_header_encode(ptr noundef %47, ptr noundef %48, ptr noundef %5)
  store i64 %49, ptr %6, align 8, !tbaa !10
  %50 = icmp eq i64 0, %49
  br i1 %50, label %51, label %70

51:                                               ; preds = %46
  br label %52

52:                                               ; preds = %51
  br label %53

53:                                               ; preds = %52
  br label %54

54:                                               ; preds = %53
  %55 = load i64, ptr @H5E_VFL_g, align 8, !tbaa !10
  %56 = load i64, ptr @H5E_BADVALUE_g, align 8, !tbaa !10
  %57 = call i32 (ptr, ptr, i32, i64, i64, ptr, ...) @H5E_printf_stack(ptr noundef @.str, ptr noundef @__func__.H5FD__onion_write_header, i32 noundef 95, i64 noundef %55, i64 noundef %56, ptr noundef @.str.8)
  br label %58

58:                                               ; preds = %54
  br label %59

59:                                               ; preds = %58
  store i8 1, ptr %9, align 1, !tbaa !16
  %60 = load i8, ptr %9, align 1, !tbaa !16, !range !18, !noundef !19
  %61 = trunc i8 %60 to i1
  %62 = zext i1 %61 to i8
  store i8 %62, ptr %9, align 1, !tbaa !16
  br label %63

63:                                               ; preds = %59
  br label %64

64:                                               ; preds = %63
  br label %65

65:                                               ; preds = %64
  store i32 -1, ptr %8, align 4, !tbaa !14
  br label %96

66:                                               ; No predecessors!
  br label %67

67:                                               ; preds = %66
  br label %68

68:                                               ; preds = %67
  br label %69

69:                                               ; preds = %68
  br label %70

70:                                               ; preds = %69, %46
  %71 = load ptr, ptr %4, align 8, !tbaa !8
  %72 = load i64, ptr %6, align 8, !tbaa !10
  %73 = load ptr, ptr %7, align 8, !tbaa !12
  %74 = call i32 @H5FD_write(ptr noundef %71, i32 noundef 3, i64 noundef 0, i64 noundef %72, ptr noundef %73)
  %75 = icmp slt i32 %74, 0
  br i1 %75, label %76, label %95

76:                                               ; preds = %70
  br label %77

77:                                               ; preds = %76
  br label %78

78:                                               ; preds = %77
  br label %79

79:                                               ; preds = %78
  %80 = load i64, ptr @H5E_VFL_g, align 8, !tbaa !10
  %81 = load i64, ptr @H5E_WRITEERROR_g, align 8, !tbaa !10
  %82 = call i32 (ptr, ptr, i32, i64, i64, ptr, ...) @H5E_printf_stack(ptr noundef @.str, ptr noundef @__func__.H5FD__onion_write_header, i32 noundef 98, i64 noundef %80, i64 noundef %81, ptr noundef @.str.9)
  br label %83

83:                                               ; preds = %79
  br label %84

84:                                               ; preds = %83
  store i8 1, ptr %9, align 1, !tbaa !16
  %85 = load i8, ptr %9, align 1, !tbaa !16, !range !18, !noundef !19
  %86 = trunc i8 %85 to i1
  %87 = zext i1 %86 to i8
  store i8 %87, ptr %9, align 1, !tbaa !16
  br label %88

88:                                               ; preds = %84
  br label %89

89:                                               ; preds = %88
  br label %90

90:                                               ; preds = %89
  store i32 -1, ptr %8, align 4, !tbaa !14
  br label %96

91:                                               ; No predecessors!
  br label %92

92:                                               ; preds = %91
  br label %93

93:                                               ; preds = %92
  br label %94

94:                                               ; preds = %93
  br label %95

95:                                               ; preds = %94, %70
  br label %96

96:                                               ; preds = %95, %90, %65, %41
  %97 = load ptr, ptr %7, align 8, !tbaa !12
  %98 = call ptr @H5MM_xfree(ptr noundef %97)
  br label %99

99:                                               ; preds = %96, %16
  %100 = load i32, ptr %8, align 4, !tbaa !14
  call void @llvm.lifetime.end.p0(i64 1, ptr %9) #7
  call void @llvm.lifetime.end.p0(i64 4, ptr %8) #7
  call void @llvm.lifetime.end.p0(i64 8, ptr %7) #7
  call void @llvm.lifetime.end.p0(i64 8, ptr %6) #7
  call void @llvm.lifetime.end.p0(i64 4, ptr %5) #7
  ret i32 %100
}