; Function Attrs: nounwind uwtable
define range(i32 -1, 1) i32 @H5FD__onion_write_header(ptr noundef readonly captures(none) %0, ptr noundef %1) local_unnamed_addr #0 {
  %3 = alloca i32, align 4
  call void @llvm.lifetime.start.p0(i64 4, ptr nonnull %3) #5
  store i32 0, ptr %3, align 4, !tbaa !21
  %4 = load i8, ptr @H5FD_init_g, align 1, !tbaa !3, !range !7, !noundef !8
  %5 = trunc nuw i8 %4 to i1
  %6 = load i8, ptr @H5_libterm_g, align 1, !range !7
  %7 = trunc nuw i8 %6 to i1
  %8 = xor i1 %7, true
  %9 = select i1 %5, i1 true, i1 %8
  br i1 %9, label %10, label %33, !prof !9

10:                                               ; preds = %2
  %11 = tail call noalias dereferenceable_or_null(40) ptr @malloc(i64 noundef 40) #6
  %12 = icmp eq ptr %11, null
  br i1 %12, label %13, label %17

13:                                               ; preds = %10
  %14 = load i64, ptr @H5E_VFL_g, align 8, !tbaa !10
  %15 = load i64, ptr @H5E_CANTALLOC_g, align 8, !tbaa !10
  %16 = tail call i32 (ptr, ptr, i32, i64, i64, ptr, ...) @H5E_printf_stack(ptr noundef nonnull @.str, ptr noundef nonnull @__func__.H5FD__onion_write_header, i32 noundef 92, i64 noundef %14, i64 noundef %15, ptr noundef nonnull @.str.7) #5
  br label %31

17:                                               ; preds = %10
  %18 = call i64 @H5FD__onion_header_encode(ptr noundef %0, ptr noundef nonnull %11, ptr noundef nonnull %3)
  %19 = icmp eq i64 %18, 0
  br i1 %19, label %20, label %24

20:                                               ; preds = %17
  %21 = load i64, ptr @H5E_VFL_g, align 8, !tbaa !10
  %22 = load i64, ptr @H5E_BADVALUE_g, align 8, !tbaa !10
  %23 = tail call i32 (ptr, ptr, i32, i64, i64, ptr, ...) @H5E_printf_stack(ptr noundef nonnull @.str, ptr noundef nonnull @__func__.H5FD__onion_write_header, i32 noundef 95, i64 noundef %21, i64 noundef %22, ptr noundef nonnull @.str.8) #5
  br label %31

24:                                               ; preds = %17
  %25 = tail call i32 @H5FD_write(ptr noundef %1, i32 noundef 3, i64 noundef 0, i64 noundef %18, ptr noundef nonnull %11) #5
  %26 = icmp slt i32 %25, 0
  br i1 %26, label %27, label %31

27:                                               ; preds = %24
  %28 = load i64, ptr @H5E_VFL_g, align 8, !tbaa !10
  %29 = load i64, ptr @H5E_WRITEERROR_g, align 8, !tbaa !10
  %30 = tail call i32 (ptr, ptr, i32, i64, i64, ptr, ...) @H5E_printf_stack(ptr noundef nonnull @.str, ptr noundef nonnull @__func__.H5FD__onion_write_header, i32 noundef 98, i64 noundef %28, i64 noundef %29, ptr noundef nonnull @.str.9) #5
  br label %31

31:                                               ; preds = %24, %27, %20, %13
  %.1 = phi i32 [ -1, %13 ], [ -1, %20 ], [ -1, %27 ], [ 0, %24 ]
  %32 = tail call ptr @H5MM_xfree(ptr noundef %11) #5
  br label %33

33:                                               ; preds = %31, %2
  %.0 = phi i32 [ %.1, %31 ], [ 0, %2 ]
  call void @llvm.lifetime.end.p0(i64 4, ptr nonnull %3) #5
  ret i32 %.0
}